target datalayout = "e-m:e-p270:32:32-p271:32:32-p272:64:64-i64:64-i128:128-f80:128-n8:16:32:64-S128"
target triple = "x86_64-pc-linux-gnu"

%struct.browser_data = type { ptr, ptr, i32, i32, [4096 x i8] }
%struct._zend_refcounted_h = type { i32, %union.anon }
%union.anon = type { i32 }
%struct.browscap_kv = type { ptr, ptr }

; Function Attrs: nounwind uwtable
define internal void @browscap_bdata_dtor(ptr noundef %0, i32 noundef %1) #0 {
  %3 = alloca ptr, align 8
  %4 = alloca ptr, align 8
  %5 = alloca i32, align 4
  %6 = alloca i32, align 4
  %7 = alloca i32, align 4
  %8 = alloca i32, align 4
  %9 = alloca ptr, align 8
  %10 = alloca ptr, align 8
  %11 = alloca ptr, align 8
  %12 = alloca i32, align 4
  %13 = alloca i32, align 4
  store ptr %0, ptr %11, align 8
  store i32 %1, ptr %12, align 4
  %14 = load ptr, ptr %11, align 8
  %15 = getelementptr inbounds %struct.browser_data, ptr %14, i32 0, i32 0
  %16 = load ptr, ptr %15, align 8
  %17 = icmp ne ptr %16, null
  br i1 %17, label %18, label %137

18:                                               ; preds = %2
  %19 = load ptr, ptr %11, align 8
  %20 = getelementptr inbounds %struct.browser_data, ptr %19, i32 0, i32 0
  %21 = load ptr, ptr %20, align 8
  call void @zend_hash_destroy(ptr noundef %21)
  %22 = load i32, ptr %12, align 4
  %23 = icmp ne i32 %22, 0
  br i1 %23, label %24, label %28

24:                                               ; preds = %18
  %25 = load ptr, ptr %11, align 8
  %26 = getelementptr inbounds %struct.browser_data, ptr %25, i32 0, i32 0
  %27 = load ptr, ptr %26, align 8
  call void @free(ptr noundef %27) #9
  br label %32

28:                                               ; preds = %18
  %29 = load ptr, ptr %11, align 8
  %30 = getelementptr inbounds %struct.browser_data, ptr %29, i32 0, i32 0
  %31 = load ptr, ptr %30, align 8
  call void @_efree(ptr noundef %31)
  br label %32

32:                                               ; preds = %28, %24
  %33 = load ptr, ptr %11, align 8
  %34 = getelementptr inbounds %struct.browser_data, ptr %33, i32 0, i32 0
  store ptr null, ptr %34, align 8
  store i32 0, ptr %13, align 4
  br label %35

35:                                               ; preds = %120, %32
  %36 = load i32, ptr %13, align 4
  %37 = load ptr, ptr %11, align 8
  %38 = getelementptr inbounds %struct.browser_data, ptr %37, i32 0, i32 2
  %39 = load i32, ptr %38, align 8
  %40 = icmp ult i32 %36, %39
  br i1 %40, label %41, label %123

41:                                               ; preds = %35
  %42 = load ptr, ptr %11, align 8
  %43 = getelementptr inbounds %struct.browser_data, ptr %42, i32 0, i32 1
  %44 = load ptr, ptr %43, align 8
  %45 = load i32, ptr %13, align 4
  %46 = zext i32 %45 to i64
  %47 = getelementptr inbounds %struct.browscap_kv, ptr %44, i64 %46
  %48 = getelementptr inbounds %struct.browscap_kv, ptr %47, i32 0, i32 0
  %49 = load ptr, ptr %48, align 8
  store ptr %49, ptr %9, align 8
  %50 = load ptr, ptr %9, align 8
  %51 = getelementptr inbounds %struct._zend_refcounted_h, ptr %50, i32 0, i32 1
  %52 = load i32, ptr %51, align 4
  store i32 %52, ptr %7, align 4
  %53 = load i32, ptr %7, align 4
  %54 = and i32 %53, 1008
  %55 = and i32 %54, 64
  %56 = icmp ne i32 %55, 0
  br i1 %56, label %80, label %57

57:                                               ; preds = %41
  %58 = load ptr, ptr %9, align 8
  store ptr %58, ptr %4, align 8
  %59 = load ptr, ptr %4, align 8
  %60 = load i32, ptr %59, align 4
  %61 = icmp ugt i32 %60, 0
  call void @llvm.assume(i1 %61)
  %62 = load ptr, ptr %4, align 8
  %63 = load i32, ptr %62, align 4
  %64 = add i32 %63, -1
  store i32 %64, ptr %62, align 4
  %65 = icmp eq i32 %64, 0
  br i1 %65, label %66, label %79

66:                                               ; preds = %57
  %67 = load ptr, ptr %9, align 8
  %68 = getelementptr inbounds %struct._zend_refcounted_h, ptr %67, i32 0, i32 1
  %69 = load i32, ptr %68, align 4
  store i32 %69, ptr %8, align 4
  %70 = load i32, ptr %8, align 4
  %71 = and i32 %70, 1008
  %72 = and i32 %71, 128
  %73 = icmp ne i32 %72, 0
  br i1 %73, label %74, label %76

74:                                               ; preds = %66
  %75 = load ptr, ptr %9, align 8
  call void @free(ptr noundef %75) #9
  br label %78

76:                                               ; preds = %66
  %77 = load ptr, ptr %9, align 8
  call void @_efree(ptr noundef %77) #9
  br label %78

78:                                               ; preds = %76, %74
  br label %79

79:                                               ; preds = %78, %57
  br label %80

80:                                               ; preds = %79, %41
  %81 = load ptr, ptr %11, align 8
  %82 = getelementptr inbounds %struct.browser_data, ptr %81, i32 0, i32 1
  %83 = load ptr, ptr %82, align 8
  %84 = load i32, ptr %13, align 4
  %85 = zext i32 %84 to i64
  %86 = getelementptr inbounds %struct.browscap_kv, ptr %83, i64 %85
  %87 = getelementptr inbounds %struct.browscap_kv, ptr %86, i32 0, i32 1
  %88 = load ptr, ptr %87, align 8
  store ptr %88, ptr %10, align 8
  %89 = load ptr, ptr %10, align 8
  %90 = getelementptr inbounds %struct._zend_refcounted_h, ptr %89, i32 0, i32 1
  %91 = load i32, ptr %90, align 4
  store i32 %91, ptr %5, align 4
  %92 = load i32, ptr %5, align 4
  %93 = and i32 %92, 1008
  %94 = and i32 %93, 64
  %95 = icmp ne i32 %94, 0
  br i1 %95, label %119, label %96

96:                                               ; preds = %80
  %97 = load ptr, ptr %10, align 8
  store ptr %97, ptr %3, align 8
  %98 = load ptr, ptr %3, align 8
  %99 = load i32, ptr %98, align 4
  %100 = icmp ugt i32 %99, 0
  call void @llvm.assume(i1 %100)
  %101 = load ptr, ptr %3, align 8
  %102 = load i32, ptr %101, align 4
  %103 = add i32 %102, -1
  store i32 %103, ptr %101, align 4
  %104 = icmp eq i32 %103, 0
  br i1 %104, label %105, label %118

105:                                              ; preds = %96
  %106 = load ptr, ptr %10, align 8
  %107 = getelementptr inbounds %struct._zend_refcounted_h, ptr %106, i32 0, i32 1
  %108 = load i32, ptr %107, align 4
  store i32 %108, ptr %6, align 4
  %109 = load i32, ptr %6, align 4
  %110 = and i32 %109, 1008
  %111 = and i32 %110, 128
  %112 = icmp ne i32 %111, 0
  br i1 %112, label %113, label %115

113:                                              ; preds = %105
  %114 = load ptr, ptr %10, align 8
  call void @free(ptr noundef %114) #9
  br label %117

115:                                              ; preds = %105
  %116 = load ptr, ptr %10, align 8
  call void @_efree(ptr noundef %116) #9
  br label %117

117:                                              ; preds = %115, %113
  br label %118

118:                                              ; preds = %117, %96
  br label %119

119:                                              ; preds = %118, %80
  br label %120

120:                                              ; preds = %119
  %121 = load i32, ptr %13, align 4
  %122 = add i32 %121, 1
  store i32 %122, ptr %13, align 4
  br label %35

123:                                              ; preds = %35
  %124 = load i32, ptr %12, align 4
  %125 = icmp ne i32 %124, 0
  br i1 %125, label %126, label %130

126:                                              ; preds = %123
  %127 = load ptr, ptr %11, align 8
  %128 = getelementptr inbounds %struct.browser_data, ptr %127, i32 0, i32 1
  %129 = load ptr, ptr %128, align 8
  call void @free(ptr noundef %129) #9
  br label %134

130:                                              ; preds = %123
  %131 = load ptr, ptr %11, align 8
  %132 = getelementptr inbounds %struct.browser_data, ptr %131, i32 0, i32 1
  %133 = load ptr, ptr %132, align 8
  call void @_efree(ptr noundef %133)
  br label %134

134:                                              ; preds = %130, %126
  %135 = load ptr, ptr %11, align 8
  %136 = getelementptr inbounds %struct.browser_data, ptr %135, i32 0, i32 1
  store ptr null, ptr %136, align 8
  br label %137

137:                                              ; preds = %134, %2
  %138 = load ptr, ptr %11, align 8
  %139 = getelementptr inbounds %struct.browser_data, ptr %138, i32 0, i32 4
  %140 = getelementptr inbounds [4096 x i8], ptr %139, i64 0, i64 0
  store i8 0, ptr %140, align 8
  ret void
}