; Function Attrs: nounwind uwtable
define internal fastcc void @browscap_bdata_dtor(ptr nocapture noundef %0, i32 noundef %1) unnamed_addr #0 {
  %3 = load ptr, ptr %0, align 8
  %.not = icmp eq ptr %3, null
  br i1 %.not, label %54, label %4

4:                                                ; preds = %2
  tail call void @zend_hash_destroy(ptr noundef nonnull %3) #13
  %.not36 = icmp eq i32 %1, 0
  %5 = load ptr, ptr %0, align 8
  br i1 %.not36, label %7, label %6

6:                                                ; preds = %4
  tail call void @free(ptr noundef %5) #13
  br label %8

7:                                                ; preds = %4
  tail call void @_efree(ptr noundef %5) #13
  br label %8

8:                                                ; preds = %7, %6
  store ptr null, ptr %0, align 8
  %9 = getelementptr inbounds i8, ptr %0, i64 16
  %10 = load i32, ptr %9, align 8
  %.not42 = icmp eq i32 %10, 0
  br i1 %.not42, label %._crit_edge, label %.lr.ph

.lr.ph:                                           ; preds = %8
  %11 = getelementptr inbounds i8, ptr %0, i64 8
  br label %12

12:                                               ; preds = %.lr.ph, %44
  %indvars.iv = phi i64 [ 0, %.lr.ph ], [ %indvars.iv.next, %44 ]
  %13 = load ptr, ptr %11, align 8
  %14 = getelementptr inbounds %struct.browscap_kv, ptr %13, i64 %indvars.iv
  %15 = load ptr, ptr %14, align 8
  %16 = getelementptr inbounds i8, ptr %15, i64 4
  %17 = load i32, ptr %16, align 4
  %18 = and i32 %17, 64
  %.not37 = icmp eq i32 %18, 0
  br i1 %.not37, label %19, label %28

19:                                               ; preds = %12
  %20 = load i32, ptr %15, align 4
  %21 = icmp ne i32 %20, 0
  tail call void @llvm.assume(i1 %21)
  %22 = add i32 %20, -1
  store i32 %22, ptr %15, align 4
  %23 = icmp eq i32 %22, 0
  br i1 %23, label %24, label %28

24:                                               ; preds = %19
  %25 = and i32 %17, 128
  %.not38 = icmp eq i32 %25, 0
  br i1 %.not38, label %27, label %26

26:                                               ; preds = %24
  tail call void @free(ptr noundef nonnull %15) #13
  br label %28

27:                                               ; preds = %24
  tail call void @_efree(ptr noundef nonnull %15) #13
  br label %28

28:                                               ; preds = %19, %27, %26, %12
  %29 = load ptr, ptr %11, align 8
  %30 = getelementptr inbounds %struct.browscap_kv, ptr %29, i64 %indvars.iv, i32 1
  %31 = load ptr, ptr %30, align 8
  %32 = getelementptr inbounds i8, ptr %31, i64 4
  %33 = load i32, ptr %32, align 4
  %34 = and i32 %33, 64
  %.not39 = icmp eq i32 %34, 0
  br i1 %.not39, label %35, label %44

35:                                               ; preds = %28
  %36 = load i32, ptr %31, align 4
  %37 = icmp ne i32 %36, 0
  tail call void @llvm.assume(i1 %37)
  %38 = add i32 %36, -1
  store i32 %38, ptr %31, align 4
  %39 = icmp eq i32 %38, 0
  br i1 %39, label %40, label %44

40:                                               ; preds = %35
  %41 = and i32 %33, 128
  %.not40 = icmp eq i32 %41, 0
  br i1 %.not40, label %43, label %42

42:                                               ; preds = %40
  tail call void @free(ptr noundef nonnull %31) #13
  br label %44

43:                                               ; preds = %40
  tail call void @_efree(ptr noundef nonnull %31) #13
  br label %44

44:                                               ; preds = %28, %42, %43, %35
  %indvars.iv.next = add nuw nsw i64 %indvars.iv, 1
  %45 = load i32, ptr %9, align 8
  %46 = zext i32 %45 to i64
  %47 = icmp ult i64 %indvars.iv.next, %46
  br i1 %47, label %12, label %._crit_edge

._crit_edge:                                      ; preds = %44, %8
  %48 = getelementptr inbounds i8, ptr %0, i64 8
  %49 = load ptr, ptr %48, align 8
  br i1 %.not36, label %51, label %50

50:                                               ; preds = %._crit_edge
  tail call void @free(ptr noundef %49) #13
  br label %52

51:                                               ; preds = %._crit_edge
  tail call void @_efree(ptr noundef %49) #13
  br label %52

52:                                               ; preds = %51, %50
  %53 = getelementptr inbounds i8, ptr %0, i64 8
  store ptr null, ptr %53, align 8
  br label %54

54:                                               ; preds = %52, %2
  %55 = getelementptr inbounds i8, ptr %0, i64 24
  store i8 0, ptr %55, align 8
  ret void
}